target datalayout = "e-m:e-p270:32:32-p271:32:32-p272:64:64-i64:64-i128:128-f80:128-n8:16:32:64-S128"
target triple = "x86_64-pc-linux-gnu"

%struct._mod = type { i32, %union.anon.6 }
%union.anon.6 = type { %struct.anon.7 }
%struct.anon.7 = type { ptr, ptr }

; Function Attrs: nounwind uwtable
define hidden ptr @_PyAST_Module(ptr noundef %0, ptr noundef %1, ptr noundef %2) #0 {
  %4 = alloca ptr, align 8
  %5 = alloca ptr, align 8
  %6 = alloca ptr, align 8
  %7 = alloca ptr, align 8
  %8 = alloca ptr, align 8
  %9 = alloca i32, align 4
  store ptr %0, ptr %5, align 8, !tbaa !26
  store ptr %1, ptr %6, align 8, !tbaa !26
  store ptr %2, ptr %7, align 8, !tbaa !24
  call void @llvm.lifetime.start.p0(i64 8, ptr %8) #8
  %10 = load ptr, ptr %7, align 8, !tbaa !24
  %11 = call ptr @_PyArena_Malloc(ptr noundef %10, i64 noundef 24)
  store ptr %11, ptr %8, align 8, !tbaa !30
  %12 = load ptr, ptr %8, align 8, !tbaa !30
  %13 = icmp ne ptr %12, null
  br i1 %13, label %15, label %14

14:                                               ; preds = %3
  store ptr null, ptr %4, align 8
  store i32 1, ptr %9, align 4
  br label %27

15:                                               ; preds = %3
  %16 = load ptr, ptr %8, align 8, !tbaa !30
  %17 = getelementptr inbounds nuw %struct._mod, ptr %16, i32 0, i32 0
  store i32 1, ptr %17, align 8, !tbaa !32
  %18 = load ptr, ptr %5, align 8, !tbaa !26
  %19 = load ptr, ptr %8, align 8, !tbaa !30
  %20 = getelementptr inbounds nuw %struct._mod, ptr %19, i32 0, i32 1
  %21 = getelementptr inbounds nuw %struct.anon.7, ptr %20, i32 0, i32 0
  store ptr %18, ptr %21, align 8, !tbaa !21
  %22 = load ptr, ptr %6, align 8, !tbaa !26
  %23 = load ptr, ptr %8, align 8, !tbaa !30
  %24 = getelementptr inbounds nuw %struct._mod, ptr %23, i32 0, i32 1
  %25 = getelementptr inbounds nuw %struct.anon.7, ptr %24, i32 0, i32 1
  store ptr %22, ptr %25, align 8, !tbaa !21
  %26 = load ptr, ptr %8, align 8, !tbaa !30
  store ptr %26, ptr %4, align 8
  store i32 1, ptr %9, align 4
  br label %27

27:                                               ; preds = %15, %14
  call void @llvm.lifetime.end.p0(i64 8, ptr %8) #8
  %28 = load ptr, ptr %4, align 8
  ret ptr %28
}