; Function Attrs: nounwind uwtable
define hidden ptr @_PyAST_Module(ptr noundef %0, ptr noundef %1, ptr noundef %2) local_unnamed_addr #0 {
  %4 = tail call ptr @_PyArena_Malloc(ptr noundef %2, i64 noundef 24) #8
  %.not = icmp eq ptr %4, null
  br i1 %.not, label %8, label %5

5:                                                ; preds = %3
  store i32 1, ptr %4, align 8, !tbaa !18
  %6 = getelementptr inbounds nuw i8, ptr %4, i64 8
  store ptr %0, ptr %6, align 8, !tbaa !9
  %7 = getelementptr inbounds nuw i8, ptr %4, i64 16
  store ptr %1, ptr %7, align 8, !tbaa !9
  br label %8

8:                                                ; preds = %3, %5
  ret ptr %4
}